target datalayout = "e-m:e-p270:32:32-p271:32:32-p272:64:64-i64:64-i128:128-f80:128-n8:16:32:64-S128"
target triple = "x86_64-unknown-linux-gnu"

%"class.hermes::vm::HermesValue" = type { i64 }
%"class.hermes::vm::CallResult" = type { i32, %"class.hermes::vm::HermesValue" }

; Function Attrs: mustprogress nounwind uwtable
define linkonce_odr hidden void @_ZN6hermes2vm11HermesValueC2EmNS1_4ETagE(ptr noundef nonnull align 8 dereferenceable(8) %this, i64 noundef %val, i64 noundef %etag) unnamed_addr #0 comdat align 2 {
entry:
  %this.addr = alloca ptr, align 8
  %val.addr = alloca i64, align 8
  %etag.addr = alloca i64, align 8
  store ptr %this, ptr %this.addr, align 8
  store i64 %val, ptr %val.addr, align 8
  store i64 %etag, ptr %etag.addr, align 8
  %this1 = load ptr, ptr %this.addr, align 8
  %raw_ = getelementptr inbounds %"class.hermes::vm::HermesValue", ptr %this1, i32 0, i32 0
  %0 = load i64, ptr %val.addr, align 8
  %1 = load i64, ptr %etag.addr, align 8
  %shl = shl i64 %1, 47
  %or = or i64 %0, %shl
  store i64 %or, ptr %raw_, align 8
  ret void
}

; Function Attrs: mustprogress nounwind uwtable
define linkonce_odr hidden void @_ZN6hermes2vm10CallResultINS0_11HermesValueELNS0_6detail20CallResultSpecializeE2EEC2ES2_(ptr noundef nonnull align 8 dereferenceable(16) %this, i64 %value.coerce) unnamed_addr #0 comdat align 2 {
entry:
  %value = alloca %"class.hermes::vm::HermesValue", align 8
  %this.addr = alloca ptr, align 8
  %coerce.dive = getelementptr inbounds %"class.hermes::vm::HermesValue", ptr %value, i32 0, i32 0
  store i64 %value.coerce, ptr %coerce.dive, align 8
  store ptr %this, ptr %this.addr, align 8
  %this1 = load ptr, ptr %this.addr, align 8
  %status_ = getelementptr inbounds %"class.hermes::vm::CallResult", ptr %this1, i32 0, i32 0
  store i32 1, ptr %status_, align 8
  %storage_2 = getelementptr inbounds %"class.hermes::vm::CallResult", ptr %this1, i32 0, i32 1
  call void @llvm.memcpy.p0.p0.i64(ptr align 8 %storage_2, ptr align 8 %value, i64 8, i1 false)
  ret void
}

; Function Attrs: mustprogress nounwind uwtable
define linkonce_odr hidden i64 @_ZN6hermes2vm11HermesValue20encodeUndefinedValueEv() #0 comdat align 2 {
entry:
  %retval = alloca %"class.hermes::vm::HermesValue", align 8
  call void @_ZN6hermes2vm11HermesValueC2EmNS1_4ETagE(ptr noundef nonnull align 8 dereferenceable(8) %retval, i64 noundef 0, i64 noundef -12)
  %coerce.dive = getelementptr inbounds %"class.hermes::vm::HermesValue", ptr %retval, i32 0, i32 0
  %0 = load i64, ptr %coerce.dive, align 8
  ret i64 %0
}

; Function Attrs: mustprogress nounwind uwtable
define linkonce_odr hidden void @_ZN6hermes2vm10CallResultINS0_11HermesValueELNS0_6detail20CallResultSpecializeE2EEC2ENS0_15ExecutionStatusE(ptr noundef nonnull align 8 dereferenceable(16) %this, i32 noundef %status) unnamed_addr #0 comdat align 2 {
entry:
  %this.addr = alloca ptr, align 8
  %status.addr = alloca i32, align 4
  store ptr %this, ptr %this.addr, align 8
  store i32 %status, ptr %status.addr, align 4
  %this1 = load ptr, ptr %this.addr, align 8
  %status_ = getelementptr inbounds %"class.hermes::vm::CallResult", ptr %this1, i32 0, i32 0
  %0 = load i32, ptr %status.addr, align 4
  store i32 %0, ptr %status_, align 8
  ret void
}

; Function Attrs: mustprogress nounwind uwtable
define hidden { i32, i64 } @_ZN6hermes2vm23hermesInternalDrainJobsEPvRNS0_7RuntimeENS0_10NativeArgsE(ptr noundef %0, ptr noundef nonnull align 8 dereferenceable(9832) %runtime, ptr noundef %args) #0 {
entry:
  %retval = alloca %"class.hermes::vm::CallResult", align 8
  %.addr = alloca ptr, align 8
  %runtime.addr = alloca ptr, align 8
  %args.indirect_addr = alloca ptr, align 8
  %drainRes = alloca i32, align 4
  %agg.tmp = alloca %"class.hermes::vm::HermesValue", align 8
  store ptr %0, ptr %.addr, align 8
  store ptr %runtime, ptr %runtime.addr, align 8
  store ptr %args, ptr %args.indirect_addr, align 8
  %1 = load ptr, ptr %runtime.addr, align 8
  %call = call noundef i32 @_ZN6hermes2vm7Runtime9drainJobsEv(ptr noundef nonnull align 8 dereferenceable(9832) %1)
  store i32 %call, ptr %drainRes, align 4
  %2 = load i32, ptr %drainRes, align 4
  %cmp = icmp eq i32 %2, 0
  br i1 %cmp, label %if.then, label %if.end

if.then:                                          ; preds = %entry
  call void @_ZN6hermes2vm10CallResultINS0_11HermesValueELNS0_6detail20CallResultSpecializeE2EEC2ENS0_15ExecutionStatusE(ptr noundef nonnull align 8 dereferenceable(16) %retval, i32 noundef 0)
  br label %return

if.end:                                           ; preds = %entry
  %call1 = call i64 @_ZN6hermes2vm11HermesValue20encodeUndefinedValueEv()
  %coerce.dive = getelementptr inbounds %"class.hermes::vm::HermesValue", ptr %agg.tmp, i32 0, i32 0
  store i64 %call1, ptr %coerce.dive, align 8
  %coerce.dive2 = getelementptr inbounds %"class.hermes::vm::HermesValue", ptr %agg.tmp, i32 0, i32 0
  %3 = load i64, ptr %coerce.dive2, align 8
  call void @_ZN6hermes2vm10CallResultINS0_11HermesValueELNS0_6detail20CallResultSpecializeE2EEC2ES2_(ptr noundef nonnull align 8 dereferenceable(16) %retval, i64 %3)
  br label %return

return:                                           ; preds = %if.end, %if.then
  %4 = load { i32, i64 }, ptr %retval, align 8
  ret { i32, i64 } %4
}