; Function Attrs: mustprogress nounwind uwtable
define hidden { i32, i64 } @_ZN6hermes2vm23hermesInternalDrainJobsEPvRNS0_7RuntimeENS0_10NativeArgsE(ptr readnone captures(none) %0, ptr noundef nonnull align 8 dereferenceable(9832) %runtime, ptr readnone captures(none) %args) #0 {
entry:
  %call = tail call noundef i32 @_ZN6hermes2vm7Runtime9drainJobsEv(ptr noundef nonnull align 8 dereferenceable(9832) %runtime) #16
  %cmp = icmp ne i32 %call, 0
  %spec.select = zext i1 %cmp to i32
  %.fca.0.insert = insertvalue { i32, i64 } poison, i32 %spec.select, 0
  %.fca.1.insert = insertvalue { i32, i64 } %.fca.0.insert, i64 -1688849860263936, 1
  ret { i32, i64 } %.fca.1.insert
}